; ModuleID = '52/2850.c'
source_filename = "52/2850.c"
target datalayout = "e-m:e-p270:32:32-p271:32:32-p272:64:64-i64:64-f80:128-n8:16:32:64-S128"
target triple = "x86_64-pc-linux-gnu"

@.str = private unnamed_addr constant [6 x i8] c"%d %d\00", align 1
@.str.1 = private unnamed_addr constant [3 x i8] c"%d\00", align 1
@.str.2 = private unnamed_addr constant [4 x i8] c" %d\00", align 1

; Function Attrs: noinline nounwind uwtable
define dso_local void @main() #0 {
  %1 = alloca [1000 x i32], align 16
  %2 = alloca i32, align 4
  %3 = alloca i32, align 4
  %4 = alloca i32, align 4
  %5 = call i32 (i8*, ...) @__isoc99_scanf(i8* getelementptr inbounds ([6 x i8], [6 x i8]* @.str, i64 0, i64 0), i32* %2, i32* %3)
  store i32 1, i32* %4, align 4
  br label %6

6:                                                ; preds = %10, %0
  %7 = load i32, i32* %4, align 4
  %8 = load i32, i32* %2, align 4
  %9 = icmp sle i32 %7, %8
  br i1 %9, label %10, label %17

10:                                               ; preds = %6
  %11 = load i32, i32* %4, align 4
  %12 = sext i32 %11 to i64
  %13 = getelementptr inbounds [1000 x i32], [1000 x i32]* %1, i64 0, i64 %12
  %14 = call i32 (i8*, ...) @__isoc99_scanf(i8* getelementptr inbounds ([3 x i8], [3 x i8]* @.str.1, i64 0, i64 0), i32* %13)
  %15 = load i32, i32* %4, align 4
  %16 = add nsw i32 %15, 1
  store i32 %16, i32* %4, align 4
  br label %6

17:                                               ; preds = %6
  store i32 1, i32* %4, align 4
  br label %18

18:                                               ; preds = %24, %17
  %19 = load i32, i32* %4, align 4
  %20 = load i32, i32* %2, align 4
  %21 = load i32, i32* %3, align 4
  %22 = sub nsw i32 %20, %21
  %23 = icmp sle i32 %19, %22
  br i1 %23, label %24, label %36

24:                                               ; preds = %18
  %25 = load i32, i32* %4, align 4
  %26 = sext i32 %25 to i64
  %27 = getelementptr inbounds [1000 x i32], [1000 x i32]* %1, i64 0, i64 %26
  %28 = load i32, i32* %27, align 4
  %29 = load i32, i32* %2, align 4
  %30 = load i32, i32* %4, align 4
  %31 = add nsw i32 %29, %30
  %32 = sext i32 %31 to i64
  %33 = getelementptr inbounds [1000 x i32], [1000 x i32]* %1, i64 0, i64 %32
  store i32 %28, i32* %33, align 4
  %34 = load i32, i32* %4, align 4
  %35 = add nsw i32 %34, 1
  store i32 %35, i32* %4, align 4
  br label %18

36:                                               ; preds = %18
  %37 = load i32, i32* %2, align 4
  %38 = load i32, i32* %3, align 4
  %39 = sub nsw i32 %37, %38
  %40 = add nsw i32 %39, 1
  store i32 %40, i32* %4, align 4
  br label %41

41:                                               ; preds = %49, %36
  %42 = load i32, i32* %4, align 4
  %43 = load i32, i32* %2, align 4
  %44 = load i32, i32* %2, align 4
  %45 = load i32, i32* %3, align 4
  %46 = sub nsw i32 %44, %45
  %47 = add nsw i32 %43, %46
  %48 = icmp sle i32 %42, %47
  br i1 %48, label %49, label %63

49:                                               ; preds = %41
  %50 = load i32, i32* %4, align 4
  %51 = sext i32 %50 to i64
  %52 = getelementptr inbounds [1000 x i32], [1000 x i32]* %1, i64 0, i64 %51
  %53 = load i32, i32* %52, align 4
  %54 = load i32, i32* %4, align 4
  %55 = load i32, i32* %2, align 4
  %56 = load i32, i32* %3, align 4
  %57 = sub nsw i32 %55, %56
  %58 = sub nsw i32 %54, %57
  %59 = sext i32 %58 to i64
  %60 = getelementptr inbounds [1000 x i32], [1000 x i32]* %1, i64 0, i64 %59
  store i32 %53, i32* %60, align 4
  %61 = load i32, i32* %4, align 4
  %62 = add nsw i32 %61, 1
  store i32 %62, i32* %4, align 4
  br label %41

63:                                               ; preds = %41
  %64 = getelementptr inbounds [1000 x i32], [1000 x i32]* %1, i64 0, i64 1
  %65 = load i32, i32* %64, align 4
  %66 = call i32 (i8*, ...) @printf(i8* getelementptr inbounds ([3 x i8], [3 x i8]* @.str.1, i64 0, i64 0), i32 %65)
  store i32 2, i32* %4, align 4
  br label %67

67:                                               ; preds = %71, %63
  %68 = load i32, i32* %4, align 4
  %69 = load i32, i32* %2, align 4
  %70 = icmp sle i32 %68, %69
  br i1 %70, label %71, label %79

71:                                               ; preds = %67
  %72 = load i32, i32* %4, align 4
  %73 = sext i32 %72 to i64
  %74 = getelementptr inbounds [1000 x i32], [1000 x i32]* %1, i64 0, i64 %73
  %75 = load i32, i32* %74, align 4
  %76 = call i32 (i8*, ...) @printf(i8* getelementptr inbounds ([4 x i8], [4 x i8]* @.str.2, i64 0, i64 0), i32 %75)
  %77 = load i32, i32* %4, align 4
  %78 = add nsw i32 %77, 1
  store i32 %78, i32* %4, align 4
  br label %67

79:                                               ; preds = %67
  ret void
}

declare dso_local i32 @__isoc99_scanf(i8*, ...) #1

declare dso_local i32 @printf(i8*, ...) #1


!llvm.module.flags = !{!0}
!llvm.ident = !{!1}

!0 = !{i32 1, !"wchar_size", i32 4}
!1 = !{!"clang version 10.0.0-4ubuntu1 "}
